target datalayout = "e-m:e-p270:32:32-p271:32:32-p272:64:64-i64:64-i128:128-f80:128-n8:16:32:64-S128"
target triple = "x86_64-pc-linux-gnu"

%"class.icu_77::UnicodeSet" = type <{ %"class.icu_77::UnicodeFilter", ptr, i32, i32, i8, [7 x i8], ptr, ptr, i32, [4 x i8], ptr, i32, [4 x i8], ptr, ptr, [25 x i32], [4 x i8] }>
%"class.icu_77::UnicodeFilter" = type { %"class.icu_77::UnicodeFunctor", %"class.icu_77::UnicodeMatcher" }
%"class.icu_77::UnicodeFunctor" = type { %"class.icu_77::UObject" }
%"class.icu_77::UObject" = type { ptr }
%"class.icu_77::UnicodeMatcher" = type { ptr }

@_ZTVN6icu_777UObjectE = available_externally unnamed_addr constant { [5 x ptr] } { [5 x ptr] [ptr null, ptr @_ZTIN6icu_777UObjectE, ptr @_ZN6icu_777UObjectD1Ev, ptr @_ZN6icu_777UObjectD0Ev, ptr @_ZNK6icu_777UObject17getDynamicClassIDEv] }, align 8

; Function Attrs: inlinehint mustprogress nounwind uwtable
define linkonce_odr void @_ZN6icu_777UObjectC2Ev(ptr noundef nonnull align 8 dereferenceable(8) %0) unnamed_addr #2 comdat align 2 {
  %2 = alloca ptr, align 8
  store ptr %0, ptr %2, align 8, !tbaa !103
  %3 = load ptr, ptr %2, align 8
  store ptr getelementptr inbounds inrange(-16, 24) ({ [5 x ptr] }, ptr @_ZTVN6icu_777UObjectE, i32 0, i32 0, i32 2), ptr %3, align 8, !tbaa !29
  ret void
}

; Function Attrs: inlinehint mustprogress nounwind uwtable
define linkonce_odr void @_ZN6icu_7714UnicodeMatcherC2Ev(ptr noundef nonnull align 8 dereferenceable(8) %0) unnamed_addr #2 comdat align 2 {
  %2 = alloca ptr, align 8
  store ptr %0, ptr %2, align 8, !tbaa !101
  %3 = load ptr, ptr %2, align 8
  store ptr getelementptr inbounds inrange(-16, 48) ({ [8 x ptr] }, ptr @_ZTVN6icu_7714UnicodeMatcherE, i32 0, i32 0, i32 2), ptr %3, align 8, !tbaa !29
  ret void
}

; Function Attrs: inlinehint mustprogress nounwind uwtable
define linkonce_odr void @_ZN6icu_7714UnicodeFunctorC2Ev(ptr noundef nonnull align 8 dereferenceable(8) %0) unnamed_addr #2 comdat align 2 {
  %2 = alloca ptr, align 8
  store ptr %0, ptr %2, align 8, !tbaa !99
  %3 = load ptr, ptr %2, align 8
  call void @_ZN6icu_777UObjectC2Ev(ptr noundef nonnull align 8 dereferenceable(8) %3) #13
  store ptr getelementptr inbounds inrange(-16, 56) ({ [9 x ptr] }, ptr @_ZTVN6icu_7714UnicodeFunctorE, i32 0, i32 0, i32 2), ptr %3, align 8, !tbaa !29
  ret void
}

; Function Attrs: inlinehint mustprogress nounwind uwtable
define linkonce_odr void @_ZN6icu_7713UnicodeFilterC2Ev(ptr noundef nonnull align 8 dereferenceable(16) %0) unnamed_addr #2 comdat align 2 {
  %2 = alloca ptr, align 8
  store ptr %0, ptr %2, align 8, !tbaa !51
  %3 = load ptr, ptr %2, align 8
  call void @_ZN6icu_7714UnicodeFunctorC2Ev(ptr noundef nonnull align 8 dereferenceable(8) %3) #13
  %4 = getelementptr inbounds i8, ptr %3, i64 8
  call void @_ZN6icu_7714UnicodeMatcherC2Ev(ptr noundef nonnull align 8 dereferenceable(8) %4) #13
  store ptr getelementptr inbounds inrange(-16, 72) ({ [11 x ptr], [8 x ptr] }, ptr @_ZTVN6icu_7713UnicodeFilterE, i32 0, i32 0, i32 2), ptr %3, align 8, !tbaa !29
  %5 = getelementptr inbounds i8, ptr %3, i64 8
  store ptr getelementptr inbounds inrange(-16, 48) ({ [11 x ptr], [8 x ptr] }, ptr @_ZTVN6icu_7713UnicodeFilterE, i32 0, i32 1, i32 2), ptr %5, align 8, !tbaa !29
  ret void
}

; Function Attrs: mustprogress uwtable
define void @_ZN6icu_7710UnicodeSetC2ERKNS_13UnicodeStringERNS_13ParsePositionEjPKNS_11SymbolTableER10UErrorCode(ptr noundef nonnull align 8 dereferenceable(200) %0, ptr noundef nonnull align 8 dereferenceable(64) %1, ptr noundef nonnull align 8 dereferenceable(16) %2, i32 noundef %3, ptr noundef %4, ptr noundef nonnull align 4 dereferenceable(4) %5) unnamed_addr #1 align 2 personality ptr @__gxx_personality_v0 {
  %7 = alloca ptr, align 8
  %8 = alloca ptr, align 8
  %9 = alloca ptr, align 8
  %10 = alloca i32, align 4
  %11 = alloca ptr, align 8
  %12 = alloca ptr, align 8
  %13 = alloca ptr, align 8
  %14 = alloca i32, align 4
  store ptr %0, ptr %7, align 8, !tbaa !23
  store ptr %1, ptr %8, align 8, !tbaa !25
  store ptr %2, ptr %9, align 8, !tbaa !53
  store i32 %3, ptr %10, align 4, !tbaa !14
  store ptr %4, ptr %11, align 8, !tbaa !27
  store ptr %5, ptr %12, align 8, !tbaa !22
  %15 = load ptr, ptr %7, align 8
  call void @_ZN6icu_7713UnicodeFilterC2Ev(ptr noundef nonnull align 8 dereferenceable(16) %15) #13
  store ptr getelementptr inbounds inrange(-16, 264) ({ [35 x ptr], [8 x ptr] }, ptr @_ZTVN6icu_7710UnicodeSetE, i32 0, i32 0, i32 2), ptr %15, align 8, !tbaa !29
  %16 = getelementptr inbounds i8, ptr %15, i64 8
  store ptr getelementptr inbounds inrange(-16, 48) ({ [35 x ptr], [8 x ptr] }, ptr @_ZTVN6icu_7710UnicodeSetE, i32 0, i32 1, i32 2), ptr %16, align 8, !tbaa !29
  %17 = getelementptr inbounds nuw %"class.icu_77::UnicodeSet", ptr %15, i32 0, i32 1
  %18 = getelementptr inbounds nuw %"class.icu_77::UnicodeSet", ptr %15, i32 0, i32 15
  %19 = getelementptr inbounds [25 x i32], ptr %18, i64 0, i64 0
  store ptr %19, ptr %17, align 8, !tbaa !31
  %20 = getelementptr inbounds nuw %"class.icu_77::UnicodeSet", ptr %15, i32 0, i32 2
  store i32 25, ptr %20, align 8, !tbaa !41
  %21 = getelementptr inbounds nuw %"class.icu_77::UnicodeSet", ptr %15, i32 0, i32 3
  store i32 1, ptr %21, align 4, !tbaa !42
  %22 = getelementptr inbounds nuw %"class.icu_77::UnicodeSet", ptr %15, i32 0, i32 4
  store i8 0, ptr %22, align 8, !tbaa !43
  %23 = getelementptr inbounds nuw %"class.icu_77::UnicodeSet", ptr %15, i32 0, i32 6
  store ptr null, ptr %23, align 8, !tbaa !44
  %24 = getelementptr inbounds nuw %"class.icu_77::UnicodeSet", ptr %15, i32 0, i32 7
  store ptr null, ptr %24, align 8, !tbaa !45
  %25 = getelementptr inbounds nuw %"class.icu_77::UnicodeSet", ptr %15, i32 0, i32 8
  store i32 0, ptr %25, align 8, !tbaa !46
  %26 = getelementptr inbounds nuw %"class.icu_77::UnicodeSet", ptr %15, i32 0, i32 10
  store ptr null, ptr %26, align 8, !tbaa !47
  %27 = getelementptr inbounds nuw %"class.icu_77::UnicodeSet", ptr %15, i32 0, i32 11
  store i32 0, ptr %27, align 8, !tbaa !48
  %28 = getelementptr inbounds nuw %"class.icu_77::UnicodeSet", ptr %15, i32 0, i32 13
  store ptr null, ptr %28, align 8, !tbaa !49
  %29 = getelementptr inbounds nuw %"class.icu_77::UnicodeSet", ptr %15, i32 0, i32 14
  store ptr null, ptr %29, align 8, !tbaa !50
  %30 = load ptr, ptr %8, align 8, !tbaa !25
  %31 = load ptr, ptr %9, align 8, !tbaa !53
  %32 = load i32, ptr %10, align 4, !tbaa !14
  %33 = load ptr, ptr %11, align 8, !tbaa !27
  %34 = load ptr, ptr %12, align 8, !tbaa !22
  %35 = invoke noundef nonnull align 8 dereferenceable(200) ptr @_ZN6icu_7710UnicodeSet12applyPatternERKNS_13UnicodeStringERNS_13ParsePositionEjPKNS_11SymbolTableER10UErrorCode(ptr noundef nonnull align 8 dereferenceable(200) %15, ptr noundef nonnull align 8 dereferenceable(64) %30, ptr noundef nonnull align 8 dereferenceable(16) %31, i32 noundef %32, ptr noundef %33, ptr noundef nonnull align 4 dereferenceable(4) %34)
          to label %36 unwind label %37

36:                                               ; preds = %6
  ret void

37:                                               ; preds = %6
  %38 = landingpad { ptr, i32 }
          cleanup
  %39 = extractvalue { ptr, i32 } %38, 0
  store ptr %39, ptr %13, align 8
  %40 = extractvalue { ptr, i32 } %38, 1
  store i32 %40, ptr %14, align 4
  call void @_ZN6icu_7713UnicodeFilterD2Ev(ptr noundef nonnull align 8 dereferenceable(16) %15) #13
  br label %41

41:                                               ; preds = %37
  %42 = load ptr, ptr %13, align 8
  %43 = load i32, ptr %14, align 4
  %44 = insertvalue { ptr, i32 } poison, ptr %42, 0
  %45 = insertvalue { ptr, i32 } %44, i32 %43, 1
  resume { ptr, i32 } %45
}